; Function Attrs: mustprogress uwtable
define dso_local void @_ZN23btDiscreteDynamicsWorld24createPredictiveContactsEf(ptr noundef nonnull align 8 dereferenceable(508) %this, float noundef %timeStep) unnamed_addr #0 align 2 personality ptr @__gxx_personality_v0 {
entry:
  %__profile = alloca %class.CProfileSample, align 1
  call void @_ZN14CProfileSampleC1EPKc(ptr noundef nonnull align 1 dereferenceable(1) %__profile, ptr noundef nonnull @.str.8)
  invoke void @_ZN23btDiscreteDynamicsWorld25releasePredictiveContactsEv(ptr noundef nonnull align 8 dereferenceable(508) %this)
          to label %invoke.cont unwind label %lpad

invoke.cont:                                      ; preds = %entry
  %m_size.i = getelementptr inbounds i8, ptr %this, i64 372
  %0 = load i32, ptr %m_size.i, align 4
  %cmp = icmp sgt i32 %0, 0
  br i1 %cmp, label %if.then, label %if.end

if.then:                                          ; preds = %invoke.cont
  %m_data.i = getelementptr inbounds i8, ptr %this, i64 384
  %1 = load ptr, ptr %m_data.i, align 8
  invoke void @_ZN23btDiscreteDynamicsWorld32createPredictiveContactsInternalEPP11btRigidBodyif(ptr noundef nonnull align 8 dereferenceable(508) %this, ptr noundef nonnull %1, i32 noundef %0, float noundef %timeStep)
          to label %if.end unwind label %lpad

lpad:                                             ; preds = %if.then, %entry
  %2 = landingpad { ptr, i32 }
          cleanup
  call void @_ZN14CProfileSampleD1Ev(ptr noundef nonnull align 1 dereferenceable(1) %__profile) #18
  resume { ptr, i32 } %2

if.end:                                           ; preds = %if.then, %invoke.cont
  call void @_ZN14CProfileSampleD1Ev(ptr noundef nonnull align 1 dereferenceable(1) %__profile) #18
  ret void
}